target datalayout = "e-m:e-p270:32:32-p271:32:32-p272:64:64-i64:64-i128:128-f80:128-n8:16:32:64-S128"
target triple = "x86_64-pc-linux-gnu"

; Function Attrs: nounwind uwtable
define internal void @put_no_rnd_vc1_chroma_mc4_c(ptr noundef %0, ptr noundef %1, i64 noundef %2, i32 noundef %3, i32 noundef %4, i32 noundef %5) #1 {
  %7 = alloca ptr, align 8
  %8 = alloca ptr, align 8
  %9 = alloca i64, align 8
  %10 = alloca i32, align 4
  %11 = alloca i32, align 4
  %12 = alloca i32, align 4
  %13 = alloca i32, align 4
  %14 = alloca i32, align 4
  %15 = alloca i32, align 4
  %16 = alloca i32, align 4
  %17 = alloca i32, align 4
  store ptr %0, ptr %7, align 8, !tbaa !45
  store ptr %1, ptr %8, align 8, !tbaa !45
  store i64 %2, ptr %9, align 8, !tbaa !47
  store i32 %3, ptr %10, align 4, !tbaa !38
  store i32 %4, ptr %11, align 4, !tbaa !38
  store i32 %5, ptr %12, align 4, !tbaa !38
  call void @llvm.lifetime.start.p0(i64 4, ptr %13) #7
  %18 = load i32, ptr %11, align 4, !tbaa !38
  %19 = sub nsw i32 8, %18
  %20 = load i32, ptr %12, align 4, !tbaa !38
  %21 = sub nsw i32 8, %20
  %22 = mul nsw i32 %19, %21
  store i32 %22, ptr %13, align 4, !tbaa !38
  call void @llvm.lifetime.start.p0(i64 4, ptr %14) #7
  %23 = load i32, ptr %11, align 4, !tbaa !38
  %24 = load i32, ptr %12, align 4, !tbaa !38
  %25 = sub nsw i32 8, %24
  %26 = mul nsw i32 %23, %25
  store i32 %26, ptr %14, align 4, !tbaa !38
  call void @llvm.lifetime.start.p0(i64 4, ptr %15) #7
  %27 = load i32, ptr %11, align 4, !tbaa !38
  %28 = sub nsw i32 8, %27
  %29 = load i32, ptr %12, align 4, !tbaa !38
  %30 = mul nsw i32 %28, %29
  store i32 %30, ptr %15, align 4, !tbaa !38
  call void @llvm.lifetime.start.p0(i64 4, ptr %16) #7
  %31 = load i32, ptr %11, align 4, !tbaa !38
  %32 = load i32, ptr %12, align 4, !tbaa !38
  %33 = mul nsw i32 %31, %32
  store i32 %33, ptr %16, align 4, !tbaa !38
  call void @llvm.lifetime.start.p0(i64 4, ptr %17) #7
  store i32 0, ptr %17, align 4, !tbaa !38
  br label %34

34:                                               ; preds = %197, %6
  %35 = load i32, ptr %17, align 4, !tbaa !38
  %36 = load i32, ptr %10, align 4, !tbaa !38
  %37 = icmp slt i32 %35, %36
  br i1 %37, label %38, label %200

38:                                               ; preds = %34
  %39 = load i32, ptr %13, align 4, !tbaa !38
  %40 = load ptr, ptr %8, align 8, !tbaa !45
  %41 = getelementptr inbounds i8, ptr %40, i64 0
  %42 = load i8, ptr %41, align 1, !tbaa !50
  %43 = zext i8 %42 to i32
  %44 = mul nsw i32 %39, %43
  %45 = load i32, ptr %14, align 4, !tbaa !38
  %46 = load ptr, ptr %8, align 8, !tbaa !45
  %47 = getelementptr inbounds i8, ptr %46, i64 1
  %48 = load i8, ptr %47, align 1, !tbaa !50
  %49 = zext i8 %48 to i32
  %50 = mul nsw i32 %45, %49
  %51 = add nsw i32 %44, %50
  %52 = load i32, ptr %15, align 4, !tbaa !38
  %53 = load ptr, ptr %8, align 8, !tbaa !45
  %54 = load i64, ptr %9, align 8, !tbaa !47
  %55 = add nsw i64 %54, 0
  %56 = getelementptr inbounds i8, ptr %53, i64 %55
  %57 = load i8, ptr %56, align 1, !tbaa !50
  %58 = zext i8 %57 to i32
  %59 = mul nsw i32 %52, %58
  %60 = add nsw i32 %51, %59
  %61 = load i32, ptr %16, align 4, !tbaa !38
  %62 = load ptr, ptr %8, align 8, !tbaa !45
  %63 = load i64, ptr %9, align 8, !tbaa !47
  %64 = add nsw i64 %63, 0
  %65 = add nsw i64 %64, 1
  %66 = getelementptr inbounds i8, ptr %62, i64 %65
  %67 = load i8, ptr %66, align 1, !tbaa !50
  %68 = zext i8 %67 to i32
  %69 = mul nsw i32 %61, %68
  %70 = add nsw i32 %60, %69
  %71 = add nsw i32 %70, 32
  %72 = sub nsw i32 %71, 4
  %73 = ashr i32 %72, 6
  %74 = trunc i32 %73 to i8
  %75 = load ptr, ptr %7, align 8, !tbaa !45
  %76 = getelementptr inbounds i8, ptr %75, i64 0
  store i8 %74, ptr %76, align 1, !tbaa !50
  %77 = load i32, ptr %13, align 4, !tbaa !38
  %78 = load ptr, ptr %8, align 8, !tbaa !45
  %79 = getelementptr inbounds i8, ptr %78, i64 1
  %80 = load i8, ptr %79, align 1, !tbaa !50
  %81 = zext i8 %80 to i32
  %82 = mul nsw i32 %77, %81
  %83 = load i32, ptr %14, align 4, !tbaa !38
  %84 = load ptr, ptr %8, align 8, !tbaa !45
  %85 = getelementptr inbounds i8, ptr %84, i64 2
  %86 = load i8, ptr %85, align 1, !tbaa !50
  %87 = zext i8 %86 to i32
  %88 = mul nsw i32 %83, %87
  %89 = add nsw i32 %82, %88
  %90 = load i32, ptr %15, align 4, !tbaa !38
  %91 = load ptr, ptr %8, align 8, !tbaa !45
  %92 = load i64, ptr %9, align 8, !tbaa !47
  %93 = add nsw i64 %92, 1
  %94 = getelementptr inbounds i8, ptr %91, i64 %93
  %95 = load i8, ptr %94, align 1, !tbaa !50
  %96 = zext i8 %95 to i32
  %97 = mul nsw i32 %90, %96
  %98 = add nsw i32 %89, %97
  %99 = load i32, ptr %16, align 4, !tbaa !38
  %100 = load ptr, ptr %8, align 8, !tbaa !45
  %101 = load i64, ptr %9, align 8, !tbaa !47
  %102 = add nsw i64 %101, 1
  %103 = add nsw i64 %102, 1
  %104 = getelementptr inbounds i8, ptr %100, i64 %103
  %105 = load i8, ptr %104, align 1, !tbaa !50
  %106 = zext i8 %105 to i32
  %107 = mul nsw i32 %99, %106
  %108 = add nsw i32 %98, %107
  %109 = add nsw i32 %108, 32
  %110 = sub nsw i32 %109, 4
  %111 = ashr i32 %110, 6
  %112 = trunc i32 %111 to i8
  %113 = load ptr, ptr %7, align 8, !tbaa !45
  %114 = getelementptr inbounds i8, ptr %113, i64 1
  store i8 %112, ptr %114, align 1, !tbaa !50
  %115 = load i32, ptr %13, align 4, !tbaa !38
  %116 = load ptr, ptr %8, align 8, !tbaa !45
  %117 = getelementptr inbounds i8, ptr %116, i64 2
  %118 = load i8, ptr %117, align 1, !tbaa !50
  %119 = zext i8 %118 to i32
  %120 = mul nsw i32 %115, %119
  %121 = load i32, ptr %14, align 4, !tbaa !38
  %122 = load ptr, ptr %8, align 8, !tbaa !45
  %123 = getelementptr inbounds i8, ptr %122, i64 3
  %124 = load i8, ptr %123, align 1, !tbaa !50
  %125 = zext i8 %124 to i32
  %126 = mul nsw i32 %121, %125
  %127 = add nsw i32 %120, %126
  %128 = load i32, ptr %15, align 4, !tbaa !38
  %129 = load ptr, ptr %8, align 8, !tbaa !45
  %130 = load i64, ptr %9, align 8, !tbaa !47
  %131 = add nsw i64 %130, 2
  %132 = getelementptr inbounds i8, ptr %129, i64 %131
  %133 = load i8, ptr %132, align 1, !tbaa !50
  %134 = zext i8 %133 to i32
  %135 = mul nsw i32 %128, %134
  %136 = add nsw i32 %127, %135
  %137 = load i32, ptr %16, align 4, !tbaa !38
  %138 = load ptr, ptr %8, align 8, !tbaa !45
  %139 = load i64, ptr %9, align 8, !tbaa !47
  %140 = add nsw i64 %139, 2
  %141 = add nsw i64 %140, 1
  %142 = getelementptr inbounds i8, ptr %138, i64 %141
  %143 = load i8, ptr %142, align 1, !tbaa !50
  %144 = zext i8 %143 to i32
  %145 = mul nsw i32 %137, %144
  %146 = add nsw i32 %136, %145
  %147 = add nsw i32 %146, 32
  %148 = sub nsw i32 %147, 4
  %149 = ashr i32 %148, 6
  %150 = trunc i32 %149 to i8
  %151 = load ptr, ptr %7, align 8, !tbaa !45
  %152 = getelementptr inbounds i8, ptr %151, i64 2
  store i8 %150, ptr %152, align 1, !tbaa !50
  %153 = load i32, ptr %13, align 4, !tbaa !38
  %154 = load ptr, ptr %8, align 8, !tbaa !45
  %155 = getelementptr inbounds i8, ptr %154, i64 3
  %156 = load i8, ptr %155, align 1, !tbaa !50
  %157 = zext i8 %156 to i32
  %158 = mul nsw i32 %153, %157
  %159 = load i32, ptr %14, align 4, !tbaa !38
  %160 = load ptr, ptr %8, align 8, !tbaa !45
  %161 = getelementptr inbounds i8, ptr %160, i64 4
  %162 = load i8, ptr %161, align 1, !tbaa !50
  %163 = zext i8 %162 to i32
  %164 = mul nsw i32 %159, %163
  %165 = add nsw i32 %158, %164
  %166 = load i32, ptr %15, align 4, !tbaa !38
  %167 = load ptr, ptr %8, align 8, !tbaa !45
  %168 = load i64, ptr %9, align 8, !tbaa !47
  %169 = add nsw i64 %168, 3
  %170 = getelementptr inbounds i8, ptr %167, i64 %169
  %171 = load i8, ptr %170, align 1, !tbaa !50
  %172 = zext i8 %171 to i32
  %173 = mul nsw i32 %166, %172
  %174 = add nsw i32 %165, %173
  %175 = load i32, ptr %16, align 4, !tbaa !38
  %176 = load ptr, ptr %8, align 8, !tbaa !45
  %177 = load i64, ptr %9, align 8, !tbaa !47
  %178 = add nsw i64 %177, 3
  %179 = add nsw i64 %178, 1
  %180 = getelementptr inbounds i8, ptr %176, i64 %179
  %181 = load i8, ptr %180, align 1, !tbaa !50
  %182 = zext i8 %181 to i32
  %183 = mul nsw i32 %175, %182
  %184 = add nsw i32 %174, %183
  %185 = add nsw i32 %184, 32
  %186 = sub nsw i32 %185, 4
  %187 = ashr i32 %186, 6
  %188 = trunc i32 %187 to i8
  %189 = load ptr, ptr %7, align 8, !tbaa !45
  %190 = getelementptr inbounds i8, ptr %189, i64 3
  store i8 %188, ptr %190, align 1, !tbaa !50
  %191 = load i64, ptr %9, align 8, !tbaa !47
  %192 = load ptr, ptr %7, align 8, !tbaa !45
  %193 = getelementptr inbounds i8, ptr %192, i64 %191
  store ptr %193, ptr %7, align 8, !tbaa !45
  %194 = load i64, ptr %9, align 8, !tbaa !47
  %195 = load ptr, ptr %8, align 8, !tbaa !45
  %196 = getelementptr inbounds i8, ptr %195, i64 %194
  store ptr %196, ptr %8, align 8, !tbaa !45
  br label %197

197:                                              ; preds = %38
  %198 = load i32, ptr %17, align 4, !tbaa !38
  %199 = add nsw i32 %198, 1
  store i32 %199, ptr %17, align 4, !tbaa !38
  br label %34, !llvm.loop !70

200:                                              ; preds = %34
  call void @llvm.lifetime.end.p0(i64 4, ptr %17) #7
  call void @llvm.lifetime.end.p0(i64 4, ptr %16) #7
  call void @llvm.lifetime.end.p0(i64 4, ptr %15) #7
  call void @llvm.lifetime.end.p0(i64 4, ptr %14) #7
  call void @llvm.lifetime.end.p0(i64 4, ptr %13) #7
  ret void
}