; Function Attrs: nofree norecurse nosync nounwind memory(argmem: readwrite) uwtable
define internal void @put_no_rnd_vc1_chroma_mc4_c(ptr noundef writeonly captures(none) %0, ptr noundef readonly captures(none) %1, i64 noundef %2, i32 noundef %3, i32 noundef %4, i32 noundef %5) #1 {
  %7 = sub nsw i32 8, %4
  %8 = sub nsw i32 8, %5
  %9 = mul nsw i32 %8, %7
  %10 = mul nsw i32 %8, %4
  %11 = mul nsw i32 %7, %5
  %12 = mul nsw i32 %5, %4
  %13 = icmp sgt i32 %3, 0
  br i1 %13, label %.lr.ph, label %._crit_edge

.lr.ph:                                           ; preds = %6, %.lr.ph
  %.062 = phi i32 [ %99, %.lr.ph ], [ 0, %6 ]
  %.05861 = phi ptr [ %98, %.lr.ph ], [ %0, %6 ]
  %.05960 = phi ptr [ %21, %.lr.ph ], [ %1, %6 ]
  %14 = load i8, ptr %.05960, align 1, !tbaa !40
  %15 = zext i8 %14 to i32
  %16 = mul nsw i32 %9, %15
  %17 = getelementptr inbounds nuw i8, ptr %.05960, i64 1
  %18 = load i8, ptr %17, align 1, !tbaa !40
  %19 = zext i8 %18 to i32
  %20 = mul nsw i32 %10, %19
  %21 = getelementptr inbounds i8, ptr %.05960, i64 %2
  %22 = load i8, ptr %21, align 1, !tbaa !40
  %23 = zext i8 %22 to i32
  %24 = mul nsw i32 %11, %23
  %25 = getelementptr i8, ptr %21, i64 1
  %26 = load i8, ptr %25, align 1, !tbaa !40
  %27 = zext i8 %26 to i32
  %28 = mul nsw i32 %12, %27
  %29 = add i32 %16, 28
  %30 = add i32 %29, %20
  %31 = add i32 %30, %24
  %32 = add i32 %31, %28
  %33 = lshr i32 %32, 6
  %34 = trunc i32 %33 to i8
  store i8 %34, ptr %.05861, align 1, !tbaa !40
  %35 = load i8, ptr %17, align 1, !tbaa !40
  %36 = zext i8 %35 to i32
  %37 = mul nsw i32 %9, %36
  %38 = getelementptr inbounds nuw i8, ptr %.05960, i64 2
  %39 = load i8, ptr %38, align 1, !tbaa !40
  %40 = zext i8 %39 to i32
  %41 = mul nsw i32 %10, %40
  %42 = load i8, ptr %25, align 1, !tbaa !40
  %43 = zext i8 %42 to i32
  %44 = mul nsw i32 %11, %43
  %45 = getelementptr i8, ptr %21, i64 2
  %46 = load i8, ptr %45, align 1, !tbaa !40
  %47 = zext i8 %46 to i32
  %48 = mul nsw i32 %12, %47
  %49 = add i32 %37, 28
  %50 = add i32 %49, %41
  %51 = add i32 %50, %44
  %52 = add i32 %51, %48
  %53 = lshr i32 %52, 6
  %54 = trunc i32 %53 to i8
  %55 = getelementptr inbounds nuw i8, ptr %.05861, i64 1
  store i8 %54, ptr %55, align 1, !tbaa !40
  %56 = load i8, ptr %38, align 1, !tbaa !40
  %57 = zext i8 %56 to i32
  %58 = mul nsw i32 %9, %57
  %59 = getelementptr inbounds nuw i8, ptr %.05960, i64 3
  %60 = load i8, ptr %59, align 1, !tbaa !40
  %61 = zext i8 %60 to i32
  %62 = mul nsw i32 %10, %61
  %63 = load i8, ptr %45, align 1, !tbaa !40
  %64 = zext i8 %63 to i32
  %65 = mul nsw i32 %11, %64
  %66 = getelementptr i8, ptr %21, i64 3
  %67 = load i8, ptr %66, align 1, !tbaa !40
  %68 = zext i8 %67 to i32
  %69 = mul nsw i32 %12, %68
  %70 = add i32 %58, 28
  %71 = add i32 %70, %62
  %72 = add i32 %71, %65
  %73 = add i32 %72, %69
  %74 = lshr i32 %73, 6
  %75 = trunc i32 %74 to i8
  %76 = getelementptr inbounds nuw i8, ptr %.05861, i64 2
  store i8 %75, ptr %76, align 1, !tbaa !40
  %77 = load i8, ptr %59, align 1, !tbaa !40
  %78 = zext i8 %77 to i32
  %79 = mul nsw i32 %9, %78
  %80 = getelementptr inbounds nuw i8, ptr %.05960, i64 4
  %81 = load i8, ptr %80, align 1, !tbaa !40
  %82 = zext i8 %81 to i32
  %83 = mul nsw i32 %10, %82
  %84 = load i8, ptr %66, align 1, !tbaa !40
  %85 = zext i8 %84 to i32
  %86 = mul nsw i32 %11, %85
  %87 = getelementptr i8, ptr %21, i64 4
  %88 = load i8, ptr %87, align 1, !tbaa !40
  %89 = zext i8 %88 to i32
  %90 = mul nsw i32 %12, %89
  %91 = add i32 %79, 28
  %92 = add i32 %91, %83
  %93 = add i32 %92, %86
  %94 = add i32 %93, %90
  %95 = lshr i32 %94, 6
  %96 = trunc i32 %95 to i8
  %97 = getelementptr inbounds nuw i8, ptr %.05861, i64 3
  store i8 %96, ptr %97, align 1, !tbaa !40
  %98 = getelementptr inbounds i8, ptr %.05861, i64 %2
  %99 = add nuw nsw i32 %.062, 1
  %exitcond.not = icmp eq i32 %99, %3
  br i1 %exitcond.not, label %._crit_edge, label %.lr.ph, !llvm.loop !94

._crit_edge:                                      ; preds = %.lr.ph, %6
  ret void
}